(dp0
S'loss_reconstruct_with_kl'
p1
(lp2
cnumpy.core.multiarray
scalar
p3
(cnumpy
dtype
p4
(S'f8'
p5
I0
I1
tp6
Rp7
(I3
S'<'
p8
NNNI-1
I-1
I0
tp9
bS'q=\ns\x02y\xa0@'
p10
tp11
Rp12
ag3
(g7
S'\x00\x00\x00D\x98\xe4\xa0@'
p13
tp14
Rp15
asS'loss_reconstruct'
p16
(lp17
g3
(g7
S'?5^\xaa<o\xa0@'
p18
tp19
Rp20
ag3
(g7
S'\xc5 \xb02e\x97\xa0@'
p21
tp22
Rp23
asS'loss_classification'
p24
(lp25
g3
(g7
S'\x00\x00\x00\xe0\xb1k\x02@'
p26
tp27
Rp28
ag3
(g7
S'\xdb\xf9~n\xa3\x98\x02@'
p29
tp30
Rp31
asS'loss_kl'
p32
(lp33
g3
(g7
S'\xaeGKu\x91\x8b\x13@'
p34
tp35
Rp36
ag3
(g7
S'7\x89!B\xc4LC@'
p37
tp38
Rp39
asS'classification_precision'
p40
(lp41
F0.0
aF0.0
as.