(dp0
S'loss_reconstruct_with_kl'
p1
(lp2
cnumpy.core.multiarray
scalar
p3
(cnumpy
dtype
p4
(S'f8'
p5
I0
I1
tp6
Rp7
(I3
S'<'
p8
NNNI-1
I-1
I0
tp9
bS'\xe1z\x14\xbej\xa3\xa0@'
p10
tp11
Rp12
asS'loss_reconstruct'
p13
(lp14
g3
(g7
S'\x8f\xc2\xf5\xc4W\xa1\xa0@'
p15
tp16
Rp17
asS'loss_classification'
p18
(lp19
g3
(g7
S'\x00\x00\x00\xe0\xb1k\x02@'
p20
tp21
Rp22
asS'loss_kl'
p23
(lp24
g3
(g7
S'\x1f\x85#X\xd0\x97\xf0?'
p25
tp26
Rp27
asS'classification_precision'
p28
(lp29
F0.0
as.